; Function Attrs: mustprogress uwtable
define hidden noundef zeroext i1 @_ZN11OpenImageIO6v3_1_08term_pvt10TermOutput5closeEv(ptr noundef nonnull align 8 dereferenceable(272) %0) unnamed_addr #6 align 2 personality ptr @__gxx_personality_v0 {
  %2 = getelementptr inbounds nuw i8, ptr %0, i64 184
  %3 = tail call noundef zeroext i1 @_ZNK11OpenImageIO6v3_1_08ImageBuf11initializedEv(ptr noundef nonnull align 8 dereferenceable(16) %2)
  br i1 %3, label %4, label %9

4:                                                ; preds = %1
  %5 = tail call noundef zeroext i1 @_ZN11OpenImageIO6v3_1_08term_pvt10TermOutput6outputEv(ptr noundef nonnull align 8 dereferenceable(272) %0)
  tail call void @_ZN11OpenImageIO6v3_1_08ImageBuf5clearEv(ptr noundef nonnull align 8 dereferenceable(16) %2)
  %6 = getelementptr inbounds nuw i8, ptr %0, i64 232
  %7 = getelementptr inbounds nuw i8, ptr %0, i64 240
  store i64 0, ptr %7, align 8, !tbaa !42
  %8 = load ptr, ptr %6, align 8, !tbaa !40
  store i8 0, ptr %8, align 1, !tbaa !41
  br label %9

9:                                                ; preds = %1, %4
  ret i1 true
}